target datalayout = "e-m:e-p270:32:32-p271:32:32-p272:64:64-i64:64-i128:128-f80:128-n8:16:32:64-S128"
target triple = "x86_64-pc-linux-gnu"

%struct.Msat_Solver_t_ = type { i32, i32, ptr, ptr, double, double, ptr, ptr, double, double, ptr, ptr, ptr, i32, i32, ptr, ptr, ptr, ptr, ptr, ptr, i32, double, i32, double, ptr, ptr, ptr, ptr, i32, ptr, ptr, ptr, ptr, %struct.Msat_SolverStats_t_, i32, i32, i32, i32, i32, i32 }
%struct.Msat_SolverStats_t_ = type { i64, i64, i64, i64, i64, i64 }

; Function Attrs: nounwind uwtable
define ptr @Msat_SolverReadClause(ptr noundef %0, i32 noundef %1) #0 {
  %3 = alloca ptr, align 8
  %4 = alloca ptr, align 8
  %5 = alloca i32, align 4
  %6 = alloca i32, align 4
  %7 = alloca i32, align 4
  store ptr %0, ptr %4, align 8, !tbaa !3
  store i32 %1, ptr %5, align 4, !tbaa !29
  call void @llvm.lifetime.start.p0(i64 4, ptr %6) #7
  %8 = load ptr, ptr %4, align 8, !tbaa !3
  %9 = getelementptr inbounds nuw %struct.Msat_Solver_t_, ptr %8, i32 0, i32 2
  %10 = load ptr, ptr %9, align 8, !tbaa !42
  %11 = call i32 @Msat_ClauseVecReadSize(ptr noundef %10)
  store i32 %11, ptr %6, align 4, !tbaa !29
  %12 = load i32, ptr %5, align 4, !tbaa !29
  %13 = load i32, ptr %6, align 4, !tbaa !29
  %14 = icmp slt i32 %12, %13
  br i1 %14, label %15, label %21

15:                                               ; preds = %2
  %16 = load ptr, ptr %4, align 8, !tbaa !3
  %17 = getelementptr inbounds nuw %struct.Msat_Solver_t_, ptr %16, i32 0, i32 2
  %18 = load ptr, ptr %17, align 8, !tbaa !42
  %19 = load i32, ptr %5, align 4, !tbaa !29
  %20 = call ptr @Msat_ClauseVecReadEntry(ptr noundef %18, i32 noundef %19)
  store ptr %20, ptr %3, align 8
  store i32 1, ptr %7, align 4
  br label %29

21:                                               ; preds = %2
  %22 = load ptr, ptr %4, align 8, !tbaa !3
  %23 = getelementptr inbounds nuw %struct.Msat_Solver_t_, ptr %22, i32 0, i32 3
  %24 = load ptr, ptr %23, align 8, !tbaa !31
  %25 = load i32, ptr %5, align 4, !tbaa !29
  %26 = load i32, ptr %6, align 4, !tbaa !29
  %27 = sub nsw i32 %25, %26
  %28 = call ptr @Msat_ClauseVecReadEntry(ptr noundef %24, i32 noundef %27)
  store ptr %28, ptr %3, align 8
  store i32 1, ptr %7, align 4
  br label %29

29:                                               ; preds = %21, %15
  call void @llvm.lifetime.end.p0(i64 4, ptr %6) #7
  %30 = load ptr, ptr %3, align 8
  ret ptr %30
}