; Function Attrs: nounwind uwtable
define ptr @Msat_SolverReadClause(ptr noundef readonly captures(none) %0, i32 noundef %1) local_unnamed_addr #1 {
  %3 = getelementptr inbounds nuw i8, ptr %0, i64 8
  %4 = load ptr, ptr %3, align 8, !tbaa !40
  %5 = tail call i32 @Msat_ClauseVecReadSize(ptr noundef %4) #11
  %6 = icmp slt i32 %1, %5
  br i1 %6, label %7, label %10

7:                                                ; preds = %2
  %8 = load ptr, ptr %3, align 8, !tbaa !40
  %9 = tail call ptr @Msat_ClauseVecReadEntry(ptr noundef %8, i32 noundef %1) #11
  br label %15

10:                                               ; preds = %2
  %11 = getelementptr inbounds nuw i8, ptr %0, i64 16
  %12 = load ptr, ptr %11, align 8, !tbaa !29
  %13 = sub nsw i32 %1, %5
  %14 = tail call ptr @Msat_ClauseVecReadEntry(ptr noundef %12, i32 noundef %13) #11
  br label %15

15:                                               ; preds = %10, %7
  %.0 = phi ptr [ %9, %7 ], [ %14, %10 ]
  ret ptr %.0
}